Certificate:
    Data:
        Version: 3 (0x2)
        Serial Number: 1 (0x1)
    Signature Algorithm: sha256WithRSAEncryption
        Issuer: C=FR, ST=Radius, L=Somewhere, O=Example Inc./emailAddress=admin@example.org, CN=Example Certificate Authority
        Validity
            Not Before: May  9 19:43:31 2024 GMT
            Not After : Jul  8 19:43:31 2024 GMT
        Subject: C=FR, ST=Radius, O=Example Inc., CN=Example Server Certificate/emailAddress=admin@example.org
        Subject Public Key Info:
            Public Key Algorithm: rsaEncryption
                Public-Key: (2048 bit)
                Modulus:
                    00:e6:42:9f:51:e5:98:4f:9b:90:f2:4d:89:f2:35:
                    d1:c2:73:37:e0:ca:01:ac:b3:d0:2c:54:4d:fd:95:
                    a1:ae:62:56:8d:71:3e:b9:85:10:67:9d:4a:56:af:
                    f2:5a:4b:17:ec:e2:ae:bc:26:4a:9a:4b:29:39:21:
                    1b:46:e6:0c:ae:bb:f0:da:ac:b0:6a:8f:ef:da:b0:
                    28:78:6f:e9:fd:03:48:22:8a:87:8c:db:99:bb:7a:
                    58:b4:2f:8a:00:21:63:87:91:49:4c:6f:d6:70:be:
                    7a:97:69:a3:68:7c:b0:c2:f8:1e:b6:41:d4:24:e7:
                    fa:49:01:f0:73:93:b0:65:9c:6e:bc:8f:27:d2:84:
                    e9:30:d8:cf:35:02:b7:f6:55:8c:e6:56:2d:d9:65:
                    5f:2d:78:31:57:85:fd:2e:3c:1b:ec:e8:89:e0:29:
                    3b:f6:72:33:b3:3b:53:f2:c4:27:53:d9:ca:9e:33:
                    17:0b:d2:6d:fc:b4:05:a6:7a:b2:5d:f7:a9:49:21:
                    bc:0b:ef:e4:83:f2:fb:d7:9f:d8:42:06:29:09:07:
                    59:51:d3:15:04:ae:f5:88:f7:63:cb:b7:46:21:13:
                    e3:d3:b2:6a:a0:7b:41:e6:5d:56:22:a0:49:9f:9c:
                    88:3c:84:49:63:70:4e:e9:ca:44:42:79:da:b6:40:
                    ae:1d
                Exponent: 65537 (0x10001)
        X509v3 extensions:
            X509v3 Extended Key Usage: 
                TLS Web Server Authentication
            X509v3 CRL Distribution Points: 

                Full Name:
                  URI:http://www.example.com/example_ca.crl

    Signature Algorithm: sha256WithRSAEncryption
         82:b0:9d:d0:33:01:51:57:90:ee:0f:f8:45:a0:2f:ce:3d:cd:
         af:70:83:e1:58:7f:ee:0e:7a:3c:75:8f:62:98:11:b1:4d:a0:
         eb:7a:56:af:09:10:0d:d9:b5:e4:c1:08:49:8f:d0:48:71:6d:
         83:52:4a:1c:3b:9d:f8:b2:52:0c:0c:d8:96:0b:41:3b:95:a9:
         9e:a8:b8:b9:82:0d:fd:ca:75:33:c5:23:fe:a6:bd:c0:d4:c0:
         7f:1a:a3:27:37:f0:9f:0c:5a:ef:f5:cd:e5:8e:db:7b:83:1c:
         6e:6e:2b:3b:fd:d5:bf:a3:5f:83:df:5f:0e:aa:6d:71:f3:34:
         8d:7d:ea:f3:4c:4e:76:29:b4:bc:57:29:db:ab:5b:c4:e6:be:
         09:a9:ba:54:be:85:da:41:96:e4:e4:5f:87:c0:13:64:c4:51:
         37:82:d6:59:3e:50:89:d7:3f:71:82:e3:e4:12:63:3b:90:0b:
         f6:bb:54:61:77:b2:e9:12:41:2d:11:49:13:0e:e0:54:ed:e4:
         c6:ec:b1:96:ee:c6:88:e0:ff:36:e0:a6:4d:1b:45:10:c5:7c:
         99:c3:78:a7:35:56:22:ea:ea:3c:b9:e9:08:57:9f:9f:1d:2c:
         37:3c:95:d7:8e:84:b5:26:24:cd:16:fc:39:91:9b:6a:38:5a:
         47:c1:13:be
-----BEGIN CERTIFICATE-----
MIID2jCCAsKgAwIBAgIBATANBgkqhkiG9w0BAQsFADCBkzELMAkGA1UEBhMCRlIx
DzANBgNVBAgMBlJhZGl1czESMBAGA1UEBwwJU29tZXdoZXJlMRUwEwYDVQQKDAxF
eGFtcGxlIEluYy4xIDAeBgkqhkiG9w0BCQEWEWFkbWluQGV4YW1wbGUub3JnMSYw
JAYDVQQDDB1FeGFtcGxlIENlcnRpZmljYXRlIEF1dGhvcml0eTAeFw0yNDA1MDkx
OTQzMzFaFw0yNDA3MDgxOTQzMzFaMHwxCzAJBgNVBAYTAkZSMQ8wDQYDVQQIDAZS
YWRpdXMxFTATBgNVBAoMDEV4YW1wbGUgSW5jLjEjMCEGA1UEAwwaRXhhbXBsZSBT
ZXJ2ZXIgQ2VydGlmaWNhdGUxIDAeBgkqhkiG9w0BCQEWEWFkbWluQGV4YW1wbGUu
b3JnMIIBIjANBgkqhkiG9w0BAQEFAAOCAQ8AMIIBCgKCAQEA5kKfUeWYT5uQ8k2J
8jXRwnM34MoBrLPQLFRN/ZWhrmJWjXE+uYUQZ51KVq/yWksX7OKuvCZKmkspOSEb
RuYMrrvw2qywao/v2rAoeG/p/QNIIoqHjNuZu3pYtC+KACFjh5FJTG/WcL56l2mj
aHywwvgetkHUJOf6SQHwc5OwZZxuvI8n0oTpMNjPNQK39lWM5lYt2WVfLXgxV4X9
Ljwb7OiJ4Ck79nIzsztT8sQnU9nKnjMXC9Jt/LQFpnqyXfepSSG8C+/kg/L715/Y
QgYpCQdZUdMVBK71iPdjy7dGIRPj07JqoHtB5l1WIqBJn5yIPIRJY3BO6cpEQnna
tkCuHQIDAQABo08wTTATBgNVHSUEDDAKBggrBgEFBQcDATA2BgNVHR8ELzAtMCug
KaAnhiVodHRwOi8vd3d3LmV4YW1wbGUuY29tL2V4YW1wbGVfY2EuY3JsMA0GCSqG
SIb3DQEBCwUAA4IBAQCCsJ3QMwFRV5DuD/hFoC/OPc2vcIPhWH/uDno8dY9imBGx
TaDrelavCRAN2bXkwQhJj9BIcW2DUkocO534slIMDNiWC0E7lameqLi5gg39ynUz
xSP+pr3A1MB/GqMnN/CfDFrv9c3ljtt7gxxubis7/dW/o1+D318Oqm1x8zSNferz
TE52KbS8Vynbq1vE5r4JqbpUvoXaQZbk5F+HwBNkxFE3gtZZPlCJ1z9xguPkEmM7
kAv2u1Rhd7LpEkEtEUkTDuBU7eTG7LGW7saI4P824KZNG0UQxXyZw3inNVYi6uo8
uekIV5+fHSw3PJXXjoS1JiTNFvw5kZtqOFpHwRO+
-----END CERTIFICATE-----
