Certificate:
    Data:
        Version: 3 (0x2)
        Serial Number: 2 (0x2)
    Signature Algorithm: sha256WithRSAEncryption
        Issuer: C=FR, ST=Radius, L=Somewhere, O=Example Inc./emailAddress=admin@example.org, CN=Example Certificate Authority
        Validity
            Not Before: May  9 19:43:31 2024 GMT
            Not After : Jul  8 19:43:31 2024 GMT
        Subject: C=FR, ST=Radius, O=Example Inc., CN=user@example.org/emailAddress=user@example.org
        Subject Public Key Info:
            Public Key Algorithm: rsaEncryption
                Public-Key: (2048 bit)
                Modulus:
                    00:b9:36:c3:80:36:77:fb:b7:c3:dd:80:59:1d:84:
                    28:d2:a8:98:3f:f8:a3:be:08:8d:7c:f7:87:1f:1e:
                    e8:58:95:6c:37:17:09:ec:14:8d:1e:87:a6:84:62:
                    26:d2:28:c7:87:81:7b:94:b8:5e:34:53:c4:44:f4:
                    ce:52:b3:97:23:07:31:54:44:d1:36:b2:ce:2e:6c:
                    df:26:77:ac:2c:90:f7:af:f2:f3:2d:d1:99:c7:2c:
                    73:56:04:5b:02:10:48:6f:3b:d1:56:1a:10:a7:02:
                    1d:65:ee:4f:c6:22:c5:da:2b:06:2e:31:9b:7f:cd:
                    7b:a0:f7:ea:14:20:ed:56:ab:8b:56:40:61:99:39:
                    18:e2:8f:8c:d6:c3:fb:aa:b1:c5:27:47:2d:6f:c7:
                    19:13:26:05:a4:c2:83:1f:39:b2:a4:63:bc:83:22:
                    23:e3:f6:88:2f:b3:d7:0b:8f:5a:12:76:1e:a5:1b:
                    4a:72:05:1a:e5:a1:24:26:f1:72:34:c0:55:b2:70:
                    30:d1:4e:f4:1b:29:13:aa:82:f1:24:58:c0:36:85:
                    da:f9:e0:13:32:d5:4a:6a:49:39:d2:e3:4b:96:e3:
                    26:7d:6c:2b:68:95:ea:93:e9:aa:a5:46:9d:45:18:
                    7c:22:ac:d0:2d:e2:95:11:bf:7d:4c:4d:5a:cd:eb:
                    1d:fd
                Exponent: 65537 (0x10001)
        X509v3 extensions:
            X509v3 Extended Key Usage: 
                TLS Web Client Authentication
            X509v3 CRL Distribution Points: 

                Full Name:
                  URI:http://www.example.com/example_ca.crl

    Signature Algorithm: sha256WithRSAEncryption
         51:df:5d:0b:92:24:ea:60:bd:46:45:75:d9:0e:76:05:98:3a:
         ba:b8:2d:9c:88:54:0c:9e:7a:79:d7:7a:36:6e:8f:ca:72:8f:
         54:c6:de:00:77:f4:c2:fe:d2:ed:bd:1d:36:00:93:ee:b8:52:
         ab:c0:c5:49:85:8a:a3:7a:d6:29:ed:2e:92:32:c0:e5:d1:6d:
         b0:24:9f:7d:5d:1d:f6:c7:31:87:21:66:43:d1:a4:99:ad:78:
         65:97:cc:95:64:ee:5a:82:a6:71:3c:67:1f:04:d4:eb:64:b0:
         68:4f:b7:d6:ff:4b:85:fb:ce:98:0e:01:3c:28:d1:b9:94:cc:
         a2:a8:32:8b:76:22:f6:1a:17:1c:ae:c4:1b:30:91:e8:0c:c0:
         56:5a:9b:f5:d2:3c:ec:e5:11:0a:4d:52:e6:45:17:00:4a:4d:
         b0:87:ed:db:3c:32:c3:65:bc:30:2e:00:c4:94:5d:a5:83:8c:
         4a:a5:ec:d6:62:6d:81:28:26:91:c2:a8:9a:28:01:a2:aa:a0:
         10:b1:fe:9c:9a:30:a6:14:dd:06:ee:8b:c2:b0:50:d8:36:d8:
         40:1f:9b:ae:1c:31:e2:30:67:79:f0:2a:2f:92:38:9a:20:fb:
         a7:e6:d1:68:e3:f8:39:a9:1a:16:33:c8:c6:b3:8a:58:b5:af:
         b2:9c:73:a8
-----BEGIN CERTIFICATE-----
MIIDzzCCAregAwIBAgIBAjANBgkqhkiG9w0BAQsFADCBkzELMAkGA1UEBhMCRlIx
DzANBgNVBAgMBlJhZGl1czESMBAGA1UEBwwJU29tZXdoZXJlMRUwEwYDVQQKDAxF
eGFtcGxlIEluYy4xIDAeBgkqhkiG9w0BCQEWEWFkbWluQGV4YW1wbGUub3JnMSYw
JAYDVQQDDB1FeGFtcGxlIENlcnRpZmljYXRlIEF1dGhvcml0eTAeFw0yNDA1MDkx
OTQzMzFaFw0yNDA3MDgxOTQzMzFaMHExCzAJBgNVBAYTAkZSMQ8wDQYDVQQIDAZS
YWRpdXMxFTATBgNVBAoMDEV4YW1wbGUgSW5jLjEZMBcGA1UEAwwQdXNlckBleGFt
cGxlLm9yZzEfMB0GCSqGSIb3DQEJARYQdXNlckBleGFtcGxlLm9yZzCCASIwDQYJ
KoZIhvcNAQEBBQADggEPADCCAQoCggEBALk2w4A2d/u3w92AWR2EKNKomD/4o74I
jXz3hx8e6FiVbDcXCewUjR6HpoRiJtIox4eBe5S4XjRTxET0zlKzlyMHMVRE0Tay
zi5s3yZ3rCyQ96/y8y3Rmccsc1YEWwIQSG870VYaEKcCHWXuT8YixdorBi4xm3/N
e6D36hQg7Vari1ZAYZk5GOKPjNbD+6qxxSdHLW/HGRMmBaTCgx85sqRjvIMiI+P2
iC+z1wuPWhJ2HqUbSnIFGuWhJCbxcjTAVbJwMNFO9BspE6qC8SRYwDaF2vngEzLV
SmpJOdLjS5bjJn1sK2iV6pPpqqVGnUUYfCKs0C3ilRG/fUxNWs3rHf0CAwEAAaNP
ME0wEwYDVR0lBAwwCgYIKwYBBQUHAwIwNgYDVR0fBC8wLTAroCmgJ4YlaHR0cDov
L3d3dy5leGFtcGxlLmNvbS9leGFtcGxlX2NhLmNybDANBgkqhkiG9w0BAQsFAAOC
AQEAUd9dC5Ik6mC9RkV12Q52BZg6urgtnIhUDJ56edd6Nm6PynKPVMbeAHf0wv7S
7b0dNgCT7rhSq8DFSYWKo3rWKe0ukjLA5dFtsCSffV0d9scxhyFmQ9Gkma14ZZfM
lWTuWoKmcTxnHwTU62SwaE+31v9LhfvOmA4BPCjRuZTMoqgyi3Yi9hoXHK7EGzCR
6AzAVlqb9dI87OURCk1S5kUXAEpNsIft2zwyw2W8MC4AxJRdpYOMSqXs1mJtgSgm
kcKomigBoqqgELH+nJowphTdBu6LwrBQ2DbYQB+brhwx4jBnefAqL5I4miD7p+bR
aOP4OakaFjPIxrOKWLWvspxzqA==
-----END CERTIFICATE-----
